target datalayout = "e-m:e-p270:32:32-p271:32:32-p272:64:64-i64:64-i128:128-f80:128-n8:16:32:64-S128"
target triple = "x86_64-pc-linux-gnu"

; Function Attrs: alwaysinline nounwind willreturn memory(none) uwtable
define internal zeroext i16 @av_bswap16(i16 noundef zeroext %0) #4 {
  %2 = alloca i16, align 2
  store i16 %0, ptr %2, align 2, !tbaa !44
  %3 = load i16, ptr %2, align 2, !tbaa !44
  %4 = zext i16 %3 to i32
  %5 = ashr i32 %4, 8
  %6 = load i16, ptr %2, align 2, !tbaa !44
  %7 = zext i16 %6 to i32
  %8 = shl i32 %7, 8
  %9 = or i32 %5, %8
  %10 = trunc i32 %9 to i16
  store i16 %10, ptr %2, align 2, !tbaa !44
  %11 = load i16, ptr %2, align 2, !tbaa !44
  ret i16 %11
}

; Function Attrs: alwaysinline nounwind uwtable
define internal void @planar_rgb16_to_y(ptr noundef %0, ptr noundef %1, i32 noundef %2, i32 noundef %3, i32 noundef %4, ptr noundef %5) #3 {
  %7 = alloca ptr, align 8
  %8 = alloca ptr, align 8
  %9 = alloca i32, align 4
  %10 = alloca i32, align 4
  %11 = alloca i32, align 4
  %12 = alloca ptr, align 8
  %13 = alloca i32, align 4
  %14 = alloca ptr, align 8
  %15 = alloca ptr, align 8
  %16 = alloca i32, align 4
  %17 = alloca i32, align 4
  %18 = alloca i32, align 4
  %19 = alloca i32, align 4
  %20 = alloca i32, align 4
  %21 = alloca i32, align 4
  %22 = alloca i32, align 4
  store ptr %0, ptr %7, align 8, !tbaa !34
  store ptr %1, ptr %8, align 8, !tbaa !47
  store i32 %2, ptr %9, align 4, !tbaa !30
  store i32 %3, ptr %10, align 4, !tbaa !30
  store i32 %4, ptr %11, align 4, !tbaa !30
  store ptr %5, ptr %12, align 8, !tbaa !35
  call void @llvm.lifetime.start.p0(i64 4, ptr %13) #9
  call void @llvm.lifetime.start.p0(i64 8, ptr %14) #9
  %23 = load ptr, ptr %8, align 8, !tbaa !47
  store ptr %23, ptr %14, align 8, !tbaa !127
  call void @llvm.lifetime.start.p0(i64 8, ptr %15) #9
  %24 = load ptr, ptr %7, align 8, !tbaa !34
  store ptr %24, ptr %15, align 8, !tbaa !43
  call void @llvm.lifetime.start.p0(i64 4, ptr %16) #9
  %25 = load ptr, ptr %12, align 8, !tbaa !35
  %26 = getelementptr inbounds i32, ptr %25, i64 0
  %27 = load i32, ptr %26, align 4, !tbaa !30
  store i32 %27, ptr %16, align 4, !tbaa !30
  call void @llvm.lifetime.start.p0(i64 4, ptr %17) #9
  %28 = load ptr, ptr %12, align 8, !tbaa !35
  %29 = getelementptr inbounds i32, ptr %28, i64 1
  %30 = load i32, ptr %29, align 4, !tbaa !30
  store i32 %30, ptr %17, align 4, !tbaa !30
  call void @llvm.lifetime.start.p0(i64 4, ptr %18) #9
  %31 = load ptr, ptr %12, align 8, !tbaa !35
  %32 = getelementptr inbounds i32, ptr %31, i64 2
  %33 = load i32, ptr %32, align 4, !tbaa !30
  store i32 %33, ptr %18, align 4, !tbaa !30
  call void @llvm.lifetime.start.p0(i64 4, ptr %19) #9
  %34 = load i32, ptr %10, align 4, !tbaa !30
  %35 = icmp slt i32 %34, 16
  br i1 %35, label %36, label %38

36:                                               ; preds = %6
  %37 = load i32, ptr %10, align 4, !tbaa !30
  br label %39

38:                                               ; preds = %6
  br label %39

39:                                               ; preds = %38, %36
  %40 = phi i32 [ %37, %36 ], [ 14, %38 ]
  store i32 %40, ptr %19, align 4, !tbaa !30
  store i32 0, ptr %13, align 4, !tbaa !30
  br label %41

41:                                               ; preds = %145, %39
  %42 = load i32, ptr %13, align 4, !tbaa !30
  %43 = load i32, ptr %9, align 4, !tbaa !30
  %44 = icmp slt i32 %42, %43
  br i1 %44, label %45, label %148

45:                                               ; preds = %41
  call void @llvm.lifetime.start.p0(i64 4, ptr %20) #9
  %46 = load i32, ptr %11, align 4, !tbaa !30
  %47 = icmp ne i32 %46, 0
  br i1 %47, label %48, label %58

48:                                               ; preds = %45
  %49 = load ptr, ptr %14, align 8, !tbaa !127
  %50 = getelementptr inbounds ptr, ptr %49, i64 0
  %51 = load ptr, ptr %50, align 8, !tbaa !43
  %52 = load i32, ptr %13, align 4, !tbaa !30
  %53 = sext i32 %52 to i64
  %54 = getelementptr inbounds i16, ptr %51, i64 %53
  %55 = load i16, ptr %54, align 1, !tbaa !36
  %56 = call zeroext i16 @av_bswap16(i16 noundef zeroext %55) #10
  %57 = zext i16 %56 to i32
  br label %67

58:                                               ; preds = %45
  %59 = load ptr, ptr %14, align 8, !tbaa !127
  %60 = getelementptr inbounds ptr, ptr %59, i64 0
  %61 = load ptr, ptr %60, align 8, !tbaa !43
  %62 = load i32, ptr %13, align 4, !tbaa !30
  %63 = sext i32 %62 to i64
  %64 = getelementptr inbounds i16, ptr %61, i64 %63
  %65 = load i16, ptr %64, align 1, !tbaa !36
  %66 = zext i16 %65 to i32
  br label %67

67:                                               ; preds = %58, %48
  %68 = phi i32 [ %57, %48 ], [ %66, %58 ]
  store i32 %68, ptr %20, align 4, !tbaa !30
  call void @llvm.lifetime.start.p0(i64 4, ptr %21) #9
  %69 = load i32, ptr %11, align 4, !tbaa !30
  %70 = icmp ne i32 %69, 0
  br i1 %70, label %71, label %81

71:                                               ; preds = %67
  %72 = load ptr, ptr %14, align 8, !tbaa !127
  %73 = getelementptr inbounds ptr, ptr %72, i64 1
  %74 = load ptr, ptr %73, align 8, !tbaa !43
  %75 = load i32, ptr %13, align 4, !tbaa !30
  %76 = sext i32 %75 to i64
  %77 = getelementptr inbounds i16, ptr %74, i64 %76
  %78 = load i16, ptr %77, align 1, !tbaa !36
  %79 = call zeroext i16 @av_bswap16(i16 noundef zeroext %78) #10
  %80 = zext i16 %79 to i32
  br label %90

81:                                               ; preds = %67
  %82 = load ptr, ptr %14, align 8, !tbaa !127
  %83 = getelementptr inbounds ptr, ptr %82, i64 1
  %84 = load ptr, ptr %83, align 8, !tbaa !43
  %85 = load i32, ptr %13, align 4, !tbaa !30
  %86 = sext i32 %85 to i64
  %87 = getelementptr inbounds i16, ptr %84, i64 %86
  %88 = load i16, ptr %87, align 1, !tbaa !36
  %89 = zext i16 %88 to i32
  br label %90

90:                                               ; preds = %81, %71
  %91 = phi i32 [ %80, %71 ], [ %89, %81 ]
  store i32 %91, ptr %21, align 4, !tbaa !30
  call void @llvm.lifetime.start.p0(i64 4, ptr %22) #9
  %92 = load i32, ptr %11, align 4, !tbaa !30
  %93 = icmp ne i32 %92, 0
  br i1 %93, label %94, label %104

94:                                               ; preds = %90
  %95 = load ptr, ptr %14, align 8, !tbaa !127
  %96 = getelementptr inbounds ptr, ptr %95, i64 2
  %97 = load ptr, ptr %96, align 8, !tbaa !43
  %98 = load i32, ptr %13, align 4, !tbaa !30
  %99 = sext i32 %98 to i64
  %100 = getelementptr inbounds i16, ptr %97, i64 %99
  %101 = load i16, ptr %100, align 1, !tbaa !36
  %102 = call zeroext i16 @av_bswap16(i16 noundef zeroext %101) #10
  %103 = zext i16 %102 to i32
  br label %113

104:                                              ; preds = %90
  %105 = load ptr, ptr %14, align 8, !tbaa !127
  %106 = getelementptr inbounds ptr, ptr %105, i64 2
  %107 = load ptr, ptr %106, align 8, !tbaa !43
  %108 = load i32, ptr %13, align 4, !tbaa !30
  %109 = sext i32 %108 to i64
  %110 = getelementptr inbounds i16, ptr %107, i64 %109
  %111 = load i16, ptr %110, align 1, !tbaa !36
  %112 = zext i16 %111 to i32
  br label %113

113:                                              ; preds = %104, %94
  %114 = phi i32 [ %103, %94 ], [ %112, %104 ]
  store i32 %114, ptr %22, align 4, !tbaa !30
  %115 = load i32, ptr %16, align 4, !tbaa !30
  %116 = load i32, ptr %22, align 4, !tbaa !30
  %117 = mul nsw i32 %115, %116
  %118 = load i32, ptr %17, align 4, !tbaa !30
  %119 = load i32, ptr %20, align 4, !tbaa !30
  %120 = mul nsw i32 %118, %119
  %121 = add nsw i32 %117, %120
  %122 = load i32, ptr %18, align 4, !tbaa !30
  %123 = load i32, ptr %21, align 4, !tbaa !30
  %124 = mul nsw i32 %122, %123
  %125 = add nsw i32 %121, %124
  %126 = load i32, ptr %10, align 4, !tbaa !30
  %127 = add nsw i32 15, %126
  %128 = sub nsw i32 %127, 8
  %129 = shl i32 16, %128
  %130 = add nsw i32 %125, %129
  %131 = load i32, ptr %19, align 4, !tbaa !30
  %132 = add nsw i32 15, %131
  %133 = sub nsw i32 %132, 15
  %134 = shl i32 1, %133
  %135 = add nsw i32 %130, %134
  %136 = load i32, ptr %19, align 4, !tbaa !30
  %137 = add nsw i32 15, %136
  %138 = sub nsw i32 %137, 14
  %139 = ashr i32 %135, %138
  %140 = trunc i32 %139 to i16
  %141 = load ptr, ptr %15, align 8, !tbaa !43
  %142 = load i32, ptr %13, align 4, !tbaa !30
  %143 = sext i32 %142 to i64
  %144 = getelementptr inbounds i16, ptr %141, i64 %143
  store i16 %140, ptr %144, align 2, !tbaa !44
  call void @llvm.lifetime.end.p0(i64 4, ptr %22) #9
  call void @llvm.lifetime.end.p0(i64 4, ptr %21) #9
  call void @llvm.lifetime.end.p0(i64 4, ptr %20) #9
  br label %145

145:                                              ; preds = %113
  %146 = load i32, ptr %13, align 4, !tbaa !30
  %147 = add nsw i32 %146, 1
  store i32 %147, ptr %13, align 4, !tbaa !30
  br label %41, !llvm.loop !152

148:                                              ; preds = %41
  call void @llvm.lifetime.end.p0(i64 4, ptr %19) #9
  call void @llvm.lifetime.end.p0(i64 4, ptr %18) #9
  call void @llvm.lifetime.end.p0(i64 4, ptr %17) #9
  call void @llvm.lifetime.end.p0(i64 4, ptr %16) #9
  call void @llvm.lifetime.end.p0(i64 8, ptr %15) #9
  call void @llvm.lifetime.end.p0(i64 8, ptr %14) #9
  call void @llvm.lifetime.end.p0(i64 4, ptr %13) #9
  ret void
}

; Function Attrs: nounwind uwtable
define internal void @planar_rgb9le_to_y(ptr noundef %0, ptr noundef %1, i32 noundef %2, ptr noundef %3, ptr noundef %4) #2 {
  %6 = alloca ptr, align 8
  %7 = alloca ptr, align 8
  %8 = alloca i32, align 4
  %9 = alloca ptr, align 8
  %10 = alloca ptr, align 8
  store ptr %0, ptr %6, align 8, !tbaa !34
  store ptr %1, ptr %7, align 8, !tbaa !47
  store i32 %2, ptr %8, align 4, !tbaa !30
  store ptr %3, ptr %9, align 8, !tbaa !35
  store ptr %4, ptr %10, align 8, !tbaa !31
  %11 = load ptr, ptr %6, align 8, !tbaa !34
  %12 = load ptr, ptr %7, align 8, !tbaa !47
  %13 = load i32, ptr %8, align 4, !tbaa !30
  %14 = load ptr, ptr %9, align 8, !tbaa !35
  call void @planar_rgb16_to_y(ptr noundef %11, ptr noundef %12, i32 noundef %13, i32 noundef 9, i32 noundef 0, ptr noundef %14)
  ret void
}