; Function Attrs: nofree norecurse nosync nounwind memory(read, argmem: readwrite, inaccessiblemem: none) uwtable
define internal void @planar_rgb9le_to_y(ptr noundef writeonly captures(none) %0, ptr noundef readonly captures(none) %1, i32 noundef %2, ptr noundef readonly captures(none) %3, ptr readnone captures(none) %4) #2 {
  %6 = load i32, ptr %3, align 4, !tbaa !42
  %7 = getelementptr inbounds nuw i8, ptr %3, i64 4
  %8 = load i32, ptr %7, align 4, !tbaa !42
  %9 = getelementptr inbounds nuw i8, ptr %3, i64 8
  %10 = load i32, ptr %9, align 4, !tbaa !42
  %11 = icmp sgt i32 %2, 0
  br i1 %11, label %.lr.ph, label %planar_rgb16_to_y.exit

.lr.ph:                                           ; preds = %5
  %12 = load ptr, ptr %1, align 8, !tbaa !46
  %13 = getelementptr inbounds nuw i8, ptr %1, i64 8
  %14 = load ptr, ptr %13, align 8, !tbaa !46
  %15 = getelementptr inbounds nuw i8, ptr %1, i64 16
  %16 = load ptr, ptr %15, align 8, !tbaa !46
  %wide.trip.count = zext nneg i32 %2 to i64
  br label %17

17:                                               ; preds = %.lr.ph, %17
  %indvars.iv = phi i64 [ 0, %.lr.ph ], [ %indvars.iv.next, %17 ]
  %18 = getelementptr inbounds nuw i16, ptr %12, i64 %indvars.iv
  %19 = load i16, ptr %18, align 1, !tbaa !34
  %20 = zext i16 %19 to i32
  %21 = getelementptr inbounds nuw i16, ptr %14, i64 %indvars.iv
  %22 = load i16, ptr %21, align 1, !tbaa !34
  %23 = zext i16 %22 to i32
  %24 = getelementptr inbounds nuw i16, ptr %16, i64 %indvars.iv
  %25 = load i16, ptr %24, align 1, !tbaa !34
  %26 = zext i16 %25 to i32
  %27 = mul nsw i32 %6, %26
  %28 = mul nsw i32 %8, %20
  %29 = mul nsw i32 %10, %23
  %30 = add i32 %28, 1049088
  %31 = add i32 %30, %29
  %32 = add i32 %31, %27
  %33 = lshr i32 %32, 10
  %34 = trunc i32 %33 to i16
  %35 = getelementptr inbounds nuw i16, ptr %0, i64 %indvars.iv
  store i16 %34, ptr %35, align 2, !tbaa !43
  %indvars.iv.next = add nuw nsw i64 %indvars.iv, 1
  %exitcond.not = icmp eq i64 %indvars.iv.next, %wide.trip.count
  br i1 %exitcond.not, label %planar_rgb16_to_y.exit, label %17, !llvm.loop !91

planar_rgb16_to_y.exit:                           ; preds = %17, %5
  ret void
}